; Function Attrs: mustprogress nounwind uwtable
define dso_local void @_ZN15LinearAllocatorD0Ev(ptr noundef nonnull align 8 dereferenceable(40) %0) unnamed_addr #0 align 2 personality ptr @__gxx_personality_v0 {
  store ptr getelementptr inbounds ({ [7 x ptr] }, ptr @_ZTV15LinearAllocator, i64 0, i32 0, i64 2), ptr %0, align 8
  %2 = getelementptr inbounds i8, ptr %0, i64 8
  %3 = load ptr, ptr %2, align 8
  invoke void @_Z6dtFreePv(ptr noundef %3)
          to label %_ZN15LinearAllocatorD2Ev.exit unwind label %4

4:                                                ; preds = %1
  %5 = landingpad { ptr, i32 }
          catch ptr null
  %6 = extractvalue { ptr, i32 } %5, 0
  tail call void @__clang_call_terminate(ptr %6) #16
  unreachable

_ZN15LinearAllocatorD2Ev.exit:                    ; preds = %1
  tail call void @_ZN16dtTileCacheAllocD2Ev(ptr noundef nonnull align 8 dereferenceable(8) %0) #14
  tail call void @_ZdlPv(ptr noundef nonnull %0) #15
  ret void
}